target datalayout = "e-m:e-p270:32:32-p271:32:32-p272:64:64-i64:64-i128:128-f80:128-n8:16:32:64-S128"
target triple = "x86_64-pc-linux-gnu"

%class.CgroupInfo = type { ptr, i32, i8, i8, i8, ptr, ptr, ptr }

; Function Attrs: mustprogress nounwind uwtable
define linkonce_odr hidden void @_ZN10CgroupInfoC2Ev(ptr noundef nonnull align 8 dereferenceable(40) %0) unnamed_addr #1 comdat align 2 {
  %2 = alloca ptr, align 8
  store ptr %0, ptr %2, align 8
  %3 = load ptr, ptr %2, align 8
  %4 = getelementptr inbounds %class.CgroupInfo, ptr %3, i32 0, i32 0
  store ptr null, ptr %4, align 8
  %5 = getelementptr inbounds %class.CgroupInfo, ptr %3, i32 0, i32 1
  store i32 -1, ptr %5, align 8
  %6 = getelementptr inbounds %class.CgroupInfo, ptr %3, i32 0, i32 2
  store i8 0, ptr %6, align 4
  %7 = getelementptr inbounds %class.CgroupInfo, ptr %3, i32 0, i32 3
  store i8 0, ptr %7, align 1
  %8 = getelementptr inbounds %class.CgroupInfo, ptr %3, i32 0, i32 4
  store i8 0, ptr %8, align 2
  %9 = getelementptr inbounds %class.CgroupInfo, ptr %3, i32 0, i32 5
  store ptr null, ptr %9, align 8
  %10 = getelementptr inbounds %class.CgroupInfo, ptr %3, i32 0, i32 6
  store ptr null, ptr %10, align 8
  %11 = getelementptr inbounds %class.CgroupInfo, ptr %3, i32 0, i32 7
  store ptr null, ptr %11, align 8
  ret void
}

; Function Attrs: mustprogress nounwind uwtable
define hidden noundef zeroext i1 @_ZN8WhiteBox15validate_cgroupEPKcS1_S1_Ph(ptr noundef %0, ptr noundef %1, ptr noundef %2, ptr noundef %3) #1 align 2 {
  %5 = alloca ptr, align 8
  %6 = alloca ptr, align 8
  %7 = alloca ptr, align 8
  %8 = alloca ptr, align 8
  %9 = alloca [5 x %class.CgroupInfo], align 16
  store ptr %0, ptr %5, align 8
  store ptr %1, ptr %6, align 8
  store ptr %2, ptr %7, align 8
  store ptr %3, ptr %8, align 8
  %10 = getelementptr inbounds [5 x %class.CgroupInfo], ptr %9, i32 0, i32 0
  %11 = getelementptr inbounds %class.CgroupInfo, ptr %10, i64 5
  br label %12

12:                                               ; preds = %12, %4
  %13 = phi ptr [ %10, %4 ], [ %14, %12 ]
  call void @_ZN10CgroupInfoC2Ev(ptr noundef nonnull align 8 dereferenceable(40) %13)
  %14 = getelementptr inbounds %class.CgroupInfo, ptr %13, i64 1
  %15 = icmp eq ptr %14, %11
  br i1 %15, label %16, label %12

16:                                               ; preds = %12
  %17 = getelementptr inbounds [5 x %class.CgroupInfo], ptr %9, i64 0, i64 0
  %18 = load ptr, ptr %5, align 8
  %19 = load ptr, ptr %6, align 8
  %20 = load ptr, ptr %7, align 8
  %21 = load ptr, ptr %8, align 8
  %22 = call noundef zeroext i1 @_ZN22CgroupSubsystemFactory14determine_typeEP10CgroupInfoPKcS3_S3_Ph(ptr noundef %17, ptr noundef %18, ptr noundef %19, ptr noundef %20, ptr noundef %21)
  ret i1 %22
}