; Function Attrs: mustprogress nounwind uwtable
define hidden noundef zeroext i1 @_ZN8WhiteBox15validate_cgroupEPKcS1_S1_Ph(ptr noundef %0, ptr noundef %1, ptr noundef %2, ptr noundef %3) local_unnamed_addr #0 align 2 {
  %5 = alloca [5 x %class.CgroupInfo], align 16
  br label %6

6:                                                ; preds = %6, %4
  %.idx = phi i64 [ 0, %4 ], [ %.add, %6 ]
  %.ptr = getelementptr inbounds i8, ptr %5, i64 %.idx
  store ptr null, ptr %.ptr, align 8
  %7 = getelementptr inbounds i8, ptr %.ptr, i64 8
  store i32 -1, ptr %7, align 8
  %8 = getelementptr inbounds i8, ptr %.ptr, i64 12
  store i8 0, ptr %8, align 4
  %9 = getelementptr inbounds i8, ptr %.ptr, i64 13
  store i8 0, ptr %9, align 1
  %10 = getelementptr inbounds i8, ptr %.ptr, i64 14
  store i8 0, ptr %10, align 2
  %11 = getelementptr inbounds i8, ptr %.ptr, i64 16
  call void @llvm.memset.p0.i64(ptr noundef nonnull align 8 dereferenceable(24) %11, i8 0, i64 24, i1 false)
  %.add = add nuw nsw i64 %.idx, 40
  %12 = icmp eq i64 %.add, 200
  br i1 %12, label %13, label %6

13:                                               ; preds = %6
  %14 = call noundef zeroext i1 @_ZN22CgroupSubsystemFactory14determine_typeEP10CgroupInfoPKcS3_S3_Ph(ptr noundef nonnull %5, ptr noundef %0, ptr noundef %1, ptr noundef %2, ptr noundef %3) #15
  ret i1 %14
}